
igonz044_lab11_part1.elf:     file format elf32-avr

Sections:
Idx Name          Size      VMA       LMA       File off  Algn
  0 .data         00000004  00800100  0000059e  00000632  2**0
                  CONTENTS, ALLOC, LOAD, DATA
  1 .text         0000059e  00000000  00000000  00000094  2**1
                  CONTENTS, ALLOC, LOAD, READONLY, CODE
  2 .bss          00000015  00800104  00800104  00000636  2**0
                  ALLOC
  3 .comment      00000030  00000000  00000000  00000636  2**0
                  CONTENTS, READONLY
  4 .note.gnu.avr.deviceinfo 00000040  00000000  00000000  00000668  2**2
                  CONTENTS, READONLY
  5 .debug_aranges 000000a8  00000000  00000000  000006a8  2**0
                  CONTENTS, READONLY, DEBUGGING
  6 .debug_info   00000e35  00000000  00000000  00000750  2**0
                  CONTENTS, READONLY, DEBUGGING
  7 .debug_abbrev 000009ce  00000000  00000000  00001585  2**0
                  CONTENTS, READONLY, DEBUGGING
  8 .debug_line   000008b5  00000000  00000000  00001f53  2**0
                  CONTENTS, READONLY, DEBUGGING
  9 .debug_frame  0000017c  00000000  00000000  00002808  2**2
                  CONTENTS, READONLY, DEBUGGING
 10 .debug_str    000005ac  00000000  00000000  00002984  2**0
                  CONTENTS, READONLY, DEBUGGING
 11 .debug_loc    000006f9  00000000  00000000  00002f30  2**0
                  CONTENTS, READONLY, DEBUGGING
 12 .debug_ranges 00000098  00000000  00000000  00003629  2**0
                  CONTENTS, READONLY, DEBUGGING

Disassembly of section .text:

00000000 <__vectors>:
   0:	67 c0       	rjmp	.+206    	; 0xd0 <__ctors_end>
   2:	00 00       	nop
   4:	82 c0       	rjmp	.+260    	; 0x10a <__bad_interrupt>
   6:	00 00       	nop
   8:	80 c0       	rjmp	.+256    	; 0x10a <__bad_interrupt>
   a:	00 00       	nop
   c:	7e c0       	rjmp	.+252    	; 0x10a <__bad_interrupt>
   e:	00 00       	nop
  10:	7c c0       	rjmp	.+248    	; 0x10a <__bad_interrupt>
  12:	00 00       	nop
  14:	7a c0       	rjmp	.+244    	; 0x10a <__bad_interrupt>
  16:	00 00       	nop
  18:	78 c0       	rjmp	.+240    	; 0x10a <__bad_interrupt>
  1a:	00 00       	nop
  1c:	76 c0       	rjmp	.+236    	; 0x10a <__bad_interrupt>
  1e:	00 00       	nop
  20:	74 c0       	rjmp	.+232    	; 0x10a <__bad_interrupt>
  22:	00 00       	nop
  24:	72 c0       	rjmp	.+228    	; 0x10a <__bad_interrupt>
  26:	00 00       	nop
  28:	70 c0       	rjmp	.+224    	; 0x10a <__bad_interrupt>
  2a:	00 00       	nop
  2c:	6e c0       	rjmp	.+220    	; 0x10a <__bad_interrupt>
  2e:	00 00       	nop
  30:	6c c0       	rjmp	.+216    	; 0x10a <__bad_interrupt>
  32:	00 00       	nop
  34:	c9 c1       	rjmp	.+914    	; 0x3c8 <__vector_13>
  36:	00 00       	nop
  38:	68 c0       	rjmp	.+208    	; 0x10a <__bad_interrupt>
  3a:	00 00       	nop
  3c:	66 c0       	rjmp	.+204    	; 0x10a <__bad_interrupt>
  3e:	00 00       	nop
  40:	64 c0       	rjmp	.+200    	; 0x10a <__bad_interrupt>
  42:	00 00       	nop
  44:	62 c0       	rjmp	.+196    	; 0x10a <__bad_interrupt>
  46:	00 00       	nop
  48:	60 c0       	rjmp	.+192    	; 0x10a <__bad_interrupt>
  4a:	00 00       	nop
  4c:	5e c0       	rjmp	.+188    	; 0x10a <__bad_interrupt>
  4e:	00 00       	nop
  50:	5c c0       	rjmp	.+184    	; 0x10a <__bad_interrupt>
  52:	00 00       	nop
  54:	5a c0       	rjmp	.+180    	; 0x10a <__bad_interrupt>
  56:	00 00       	nop
  58:	58 c0       	rjmp	.+176    	; 0x10a <__bad_interrupt>
  5a:	00 00       	nop
  5c:	56 c0       	rjmp	.+172    	; 0x10a <__bad_interrupt>
  5e:	00 00       	nop
  60:	54 c0       	rjmp	.+168    	; 0x10a <__bad_interrupt>
  62:	00 00       	nop
  64:	52 c0       	rjmp	.+164    	; 0x10a <__bad_interrupt>
  66:	00 00       	nop
  68:	50 c0       	rjmp	.+160    	; 0x10a <__bad_interrupt>
  6a:	00 00       	nop
  6c:	4e c0       	rjmp	.+156    	; 0x10a <__bad_interrupt>
  6e:	00 00       	nop
  70:	4c c0       	rjmp	.+152    	; 0x10a <__bad_interrupt>
  72:	00 00       	nop
  74:	4a c0       	rjmp	.+148    	; 0x10a <__bad_interrupt>
  76:	00 00       	nop
  78:	48 c0       	rjmp	.+144    	; 0x10a <__bad_interrupt>
  7a:	00 00       	nop
  7c:	46 c0       	rjmp	.+140    	; 0x10a <__bad_interrupt>
  7e:	00 00       	nop
  80:	44 c0       	rjmp	.+136    	; 0x10a <__bad_interrupt>
  82:	00 00       	nop
  84:	42 c0       	rjmp	.+132    	; 0x10a <__bad_interrupt>
  86:	00 00       	nop
  88:	40 c0       	rjmp	.+128    	; 0x10a <__bad_interrupt>
  8a:	00 00       	nop
  8c:	8e 00       	.word	0x008e	; ????
  8e:	61 01       	movw	r12, r2
  90:	1b 01       	movw	r2, r22
  92:	20 01       	movw	r4, r0
  94:	25 01       	movw	r4, r10
  96:	2a 01       	movw	r4, r20
  98:	2f 01       	movw	r4, r30
  9a:	34 01       	movw	r6, r8
  9c:	39 01       	movw	r6, r18
  9e:	3e 01       	movw	r6, r28
  a0:	43 01       	movw	r8, r6
  a2:	48 01       	movw	r8, r16
  a4:	4d 01       	movw	r8, r26
  a6:	52 01       	movw	r10, r4
  a8:	57 01       	movw	r10, r14
  aa:	66 01       	movw	r12, r12
  ac:	5c 01       	movw	r10, r24
  ae:	76 01       	movw	r14, r12
  b0:	a3 01       	movw	r20, r6
  b2:	79 01       	movw	r14, r18
  b4:	7c 01       	movw	r14, r24
  b6:	7f 01       	movw	r14, r30
  b8:	82 01       	movw	r16, r4
  ba:	85 01       	movw	r16, r10
  bc:	88 01       	movw	r16, r16
  be:	8b 01       	movw	r16, r22
  c0:	8e 01       	movw	r16, r28
  c2:	91 01       	movw	r18, r2
  c4:	94 01       	movw	r18, r8
  c6:	97 01       	movw	r18, r14
  c8:	9a 01       	movw	r18, r20
  ca:	9d 01       	movw	r18, r26
  cc:	a5 01       	movw	r20, r10
  ce:	a0 01       	movw	r20, r0

000000d0 <__ctors_end>:
  d0:	11 24       	eor	r1, r1
  d2:	1f be       	out	0x3f, r1	; 63
  d4:	cf ef       	ldi	r28, 0xFF	; 255
  d6:	d0 e4       	ldi	r29, 0x40	; 64
  d8:	de bf       	out	0x3e, r29	; 62
  da:	cd bf       	out	0x3d, r28	; 61

000000dc <__do_copy_data>:
  dc:	11 e0       	ldi	r17, 0x01	; 1
  de:	a0 e0       	ldi	r26, 0x00	; 0
  e0:	b1 e0       	ldi	r27, 0x01	; 1
  e2:	ee e9       	ldi	r30, 0x9E	; 158
  e4:	f5 e0       	ldi	r31, 0x05	; 5
  e6:	00 e0       	ldi	r16, 0x00	; 0
  e8:	0b bf       	out	0x3b, r16	; 59
  ea:	02 c0       	rjmp	.+4      	; 0xf0 <__do_copy_data+0x14>
  ec:	07 90       	elpm	r0, Z+
  ee:	0d 92       	st	X+, r0
  f0:	a4 30       	cpi	r26, 0x04	; 4
  f2:	b1 07       	cpc	r27, r17
  f4:	d9 f7       	brne	.-10     	; 0xec <__do_copy_data+0x10>

000000f6 <__do_clear_bss>:
  f6:	21 e0       	ldi	r18, 0x01	; 1
  f8:	a4 e0       	ldi	r26, 0x04	; 4
  fa:	b1 e0       	ldi	r27, 0x01	; 1
  fc:	01 c0       	rjmp	.+2      	; 0x100 <.do_clear_bss_start>

000000fe <.do_clear_bss_loop>:
  fe:	1d 92       	st	X+, r1

00000100 <.do_clear_bss_start>:
 100:	a9 31       	cpi	r26, 0x19	; 25
 102:	b2 07       	cpc	r27, r18
 104:	e1 f7       	brne	.-8      	; 0xfe <.do_clear_bss_loop>
 106:	ea d1       	rcall	.+980    	; 0x4dc <main>
 108:	48 c2       	rjmp	.+1168   	; 0x59a <_exit>

0000010a <__bad_interrupt>:
 10a:	7a cf       	rjmp	.-268    	; 0x0 <__vectors>

0000010c <KeyTick>:
		if( c == 0 ) { return b; }
		a = b;
		b = c;
	}
	return 0;
}
 10c:	81 31       	cpi	r24, 0x11	; 17
 10e:	91 05       	cpc	r25, r1
 110:	08 f0       	brcs	.+2      	; 0x114 <KeyTick+0x8>
 112:	e1 c0       	rjmp	.+450    	; 0x2d6 <KeyTick+0x1ca>
 114:	fc 01       	movw	r30, r24
 116:	ea 5b       	subi	r30, 0xBA	; 186
 118:	ff 4f       	sbci	r31, 0xFF	; 255
 11a:	36 c2       	rjmp	.+1132   	; 0x588 <__tablejump2__>
 11c:	8f ee       	ldi	r24, 0xEF	; 239
 11e:	88 b9       	out	0x08, r24	; 8
 120:	00 00       	nop
 122:	30 99       	sbic	0x06, 0	; 6
 124:	06 c0       	rjmp	.+12     	; 0x132 <KeyTick+0x26>
 126:	82 e0       	ldi	r24, 0x02	; 2
 128:	90 e0       	ldi	r25, 0x00	; 0
 12a:	90 93 16 01 	sts	0x0116, r25	; 0x800116 <nextState+0x1>
 12e:	80 93 15 01 	sts	0x0115, r24	; 0x800115 <nextState>
 132:	31 99       	sbic	0x06, 1	; 6
 134:	06 c0       	rjmp	.+12     	; 0x142 <KeyTick+0x36>
 136:	85 e0       	ldi	r24, 0x05	; 5
 138:	90 e0       	ldi	r25, 0x00	; 0
 13a:	90 93 16 01 	sts	0x0116, r25	; 0x800116 <nextState+0x1>
 13e:	80 93 15 01 	sts	0x0115, r24	; 0x800115 <nextState>
 142:	32 99       	sbic	0x06, 2	; 6
 144:	06 c0       	rjmp	.+12     	; 0x152 <KeyTick+0x46>
 146:	88 e0       	ldi	r24, 0x08	; 8
 148:	90 e0       	ldi	r25, 0x00	; 0
 14a:	90 93 16 01 	sts	0x0116, r25	; 0x800116 <nextState+0x1>
 14e:	80 93 15 01 	sts	0x0115, r24	; 0x800115 <nextState>
 152:	33 99       	sbic	0x06, 3	; 6
 154:	06 c0       	rjmp	.+12     	; 0x162 <KeyTick+0x56>
 156:	80 e1       	ldi	r24, 0x10	; 16
 158:	90 e0       	ldi	r25, 0x00	; 0
 15a:	90 93 16 01 	sts	0x0116, r25	; 0x800116 <nextState+0x1>
 15e:	80 93 15 01 	sts	0x0115, r24	; 0x800115 <nextState>
 162:	8f ed       	ldi	r24, 0xDF	; 223
 164:	88 b9       	out	0x08, r24	; 8
 166:	00 00       	nop
 168:	30 99       	sbic	0x06, 0	; 6
 16a:	06 c0       	rjmp	.+12     	; 0x178 <KeyTick+0x6c>
 16c:	83 e0       	ldi	r24, 0x03	; 3
 16e:	90 e0       	ldi	r25, 0x00	; 0
 170:	90 93 16 01 	sts	0x0116, r25	; 0x800116 <nextState+0x1>
 174:	80 93 15 01 	sts	0x0115, r24	; 0x800115 <nextState>
 178:	31 99       	sbic	0x06, 1	; 6
 17a:	06 c0       	rjmp	.+12     	; 0x188 <KeyTick+0x7c>
 17c:	86 e0       	ldi	r24, 0x06	; 6
 17e:	90 e0       	ldi	r25, 0x00	; 0
 180:	90 93 16 01 	sts	0x0116, r25	; 0x800116 <nextState+0x1>
 184:	80 93 15 01 	sts	0x0115, r24	; 0x800115 <nextState>
 188:	32 99       	sbic	0x06, 2	; 6
 18a:	06 c0       	rjmp	.+12     	; 0x198 <KeyTick+0x8c>
 18c:	89 e0       	ldi	r24, 0x09	; 9
 18e:	90 e0       	ldi	r25, 0x00	; 0
 190:	90 93 16 01 	sts	0x0116, r25	; 0x800116 <nextState+0x1>
 194:	80 93 15 01 	sts	0x0115, r24	; 0x800115 <nextState>
 198:	33 99       	sbic	0x06, 3	; 6
 19a:	06 c0       	rjmp	.+12     	; 0x1a8 <KeyTick+0x9c>
 19c:	81 e0       	ldi	r24, 0x01	; 1
 19e:	90 e0       	ldi	r25, 0x00	; 0
 1a0:	90 93 16 01 	sts	0x0116, r25	; 0x800116 <nextState+0x1>
 1a4:	80 93 15 01 	sts	0x0115, r24	; 0x800115 <nextState>
 1a8:	8f eb       	ldi	r24, 0xBF	; 191
 1aa:	88 b9       	out	0x08, r24	; 8
 1ac:	00 00       	nop
 1ae:	30 99       	sbic	0x06, 0	; 6
 1b0:	06 c0       	rjmp	.+12     	; 0x1be <KeyTick+0xb2>
 1b2:	84 e0       	ldi	r24, 0x04	; 4
 1b4:	90 e0       	ldi	r25, 0x00	; 0
 1b6:	90 93 16 01 	sts	0x0116, r25	; 0x800116 <nextState+0x1>
 1ba:	80 93 15 01 	sts	0x0115, r24	; 0x800115 <nextState>
 1be:	31 99       	sbic	0x06, 1	; 6
 1c0:	06 c0       	rjmp	.+12     	; 0x1ce <KeyTick+0xc2>
 1c2:	87 e0       	ldi	r24, 0x07	; 7
 1c4:	90 e0       	ldi	r25, 0x00	; 0
 1c6:	90 93 16 01 	sts	0x0116, r25	; 0x800116 <nextState+0x1>
 1ca:	80 93 15 01 	sts	0x0115, r24	; 0x800115 <nextState>
 1ce:	32 99       	sbic	0x06, 2	; 6
 1d0:	06 c0       	rjmp	.+12     	; 0x1de <KeyTick+0xd2>
 1d2:	8a e0       	ldi	r24, 0x0A	; 10
 1d4:	90 e0       	ldi	r25, 0x00	; 0
 1d6:	90 93 16 01 	sts	0x0116, r25	; 0x800116 <nextState+0x1>
 1da:	80 93 15 01 	sts	0x0115, r24	; 0x800115 <nextState>
 1de:	33 99       	sbic	0x06, 3	; 6
 1e0:	06 c0       	rjmp	.+12     	; 0x1ee <KeyTick+0xe2>
 1e2:	8f e0       	ldi	r24, 0x0F	; 15
 1e4:	90 e0       	ldi	r25, 0x00	; 0
 1e6:	90 93 16 01 	sts	0x0116, r25	; 0x800116 <nextState+0x1>
 1ea:	80 93 15 01 	sts	0x0115, r24	; 0x800115 <nextState>
 1ee:	8f e7       	ldi	r24, 0x7F	; 127
 1f0:	88 b9       	out	0x08, r24	; 8
 1f2:	00 00       	nop
 1f4:	30 99       	sbic	0x06, 0	; 6
 1f6:	06 c0       	rjmp	.+12     	; 0x204 <KeyTick+0xf8>
 1f8:	8b e0       	ldi	r24, 0x0B	; 11
 1fa:	90 e0       	ldi	r25, 0x00	; 0
 1fc:	90 93 16 01 	sts	0x0116, r25	; 0x800116 <nextState+0x1>
 200:	80 93 15 01 	sts	0x0115, r24	; 0x800115 <nextState>
 204:	31 99       	sbic	0x06, 1	; 6
 206:	06 c0       	rjmp	.+12     	; 0x214 <KeyTick+0x108>
 208:	8c e0       	ldi	r24, 0x0C	; 12
 20a:	90 e0       	ldi	r25, 0x00	; 0
 20c:	90 93 16 01 	sts	0x0116, r25	; 0x800116 <nextState+0x1>
 210:	80 93 15 01 	sts	0x0115, r24	; 0x800115 <nextState>
 214:	32 99       	sbic	0x06, 2	; 6
 216:	06 c0       	rjmp	.+12     	; 0x224 <KeyTick+0x118>
 218:	8d e0       	ldi	r24, 0x0D	; 13
 21a:	90 e0       	ldi	r25, 0x00	; 0
 21c:	90 93 16 01 	sts	0x0116, r25	; 0x800116 <nextState+0x1>
 220:	80 93 15 01 	sts	0x0115, r24	; 0x800115 <nextState>
 224:	33 99       	sbic	0x06, 3	; 6
 226:	62 c0       	rjmp	.+196    	; 0x2ec <KeyTick+0x1e0>
 228:	8e e0       	ldi	r24, 0x0E	; 14
 22a:	90 e0       	ldi	r25, 0x00	; 0
 22c:	90 93 16 01 	sts	0x0116, r25	; 0x800116 <nextState+0x1>
 230:	80 93 15 01 	sts	0x0115, r24	; 0x800115 <nextState>
 234:	5b c0       	rjmp	.+182    	; 0x2ec <KeyTick+0x1e0>
 236:	10 92 16 01 	sts	0x0116, r1	; 0x800116 <nextState+0x1>
 23a:	10 92 15 01 	sts	0x0115, r1	; 0x800115 <nextState>
 23e:	59 c0       	rjmp	.+178    	; 0x2f2 <KeyTick+0x1e6>
 240:	10 92 16 01 	sts	0x0116, r1	; 0x800116 <nextState+0x1>
 244:	10 92 15 01 	sts	0x0115, r1	; 0x800115 <nextState>
 248:	57 c0       	rjmp	.+174    	; 0x2f8 <KeyTick+0x1ec>
 24a:	10 92 16 01 	sts	0x0116, r1	; 0x800116 <nextState+0x1>
 24e:	10 92 15 01 	sts	0x0115, r1	; 0x800115 <nextState>
 252:	55 c0       	rjmp	.+170    	; 0x2fe <KeyTick+0x1f2>
 254:	10 92 16 01 	sts	0x0116, r1	; 0x800116 <nextState+0x1>
 258:	10 92 15 01 	sts	0x0115, r1	; 0x800115 <nextState>
 25c:	53 c0       	rjmp	.+166    	; 0x304 <KeyTick+0x1f8>
 25e:	10 92 16 01 	sts	0x0116, r1	; 0x800116 <nextState+0x1>
 262:	10 92 15 01 	sts	0x0115, r1	; 0x800115 <nextState>
 266:	51 c0       	rjmp	.+162    	; 0x30a <KeyTick+0x1fe>
 268:	10 92 16 01 	sts	0x0116, r1	; 0x800116 <nextState+0x1>
 26c:	10 92 15 01 	sts	0x0115, r1	; 0x800115 <nextState>
 270:	4f c0       	rjmp	.+158    	; 0x310 <KeyTick+0x204>
 272:	10 92 16 01 	sts	0x0116, r1	; 0x800116 <nextState+0x1>
 276:	10 92 15 01 	sts	0x0115, r1	; 0x800115 <nextState>
 27a:	4d c0       	rjmp	.+154    	; 0x316 <KeyTick+0x20a>
 27c:	10 92 16 01 	sts	0x0116, r1	; 0x800116 <nextState+0x1>
 280:	10 92 15 01 	sts	0x0115, r1	; 0x800115 <nextState>
 284:	4b c0       	rjmp	.+150    	; 0x31c <KeyTick+0x210>
 286:	10 92 16 01 	sts	0x0116, r1	; 0x800116 <nextState+0x1>
 28a:	10 92 15 01 	sts	0x0115, r1	; 0x800115 <nextState>
 28e:	49 c0       	rjmp	.+146    	; 0x322 <KeyTick+0x216>
 290:	10 92 16 01 	sts	0x0116, r1	; 0x800116 <nextState+0x1>
 294:	10 92 15 01 	sts	0x0115, r1	; 0x800115 <nextState>
 298:	47 c0       	rjmp	.+142    	; 0x328 <KeyTick+0x21c>
 29a:	10 92 16 01 	sts	0x0116, r1	; 0x800116 <nextState+0x1>
 29e:	10 92 15 01 	sts	0x0115, r1	; 0x800115 <nextState>
 2a2:	45 c0       	rjmp	.+138    	; 0x32e <KeyTick+0x222>
 2a4:	10 92 16 01 	sts	0x0116, r1	; 0x800116 <nextState+0x1>
 2a8:	10 92 15 01 	sts	0x0115, r1	; 0x800115 <nextState>
 2ac:	43 c0       	rjmp	.+134    	; 0x334 <KeyTick+0x228>
 2ae:	10 92 16 01 	sts	0x0116, r1	; 0x800116 <nextState+0x1>
 2b2:	10 92 15 01 	sts	0x0115, r1	; 0x800115 <nextState>
 2b6:	41 c0       	rjmp	.+130    	; 0x33a <KeyTick+0x22e>
 2b8:	10 92 16 01 	sts	0x0116, r1	; 0x800116 <nextState+0x1>
 2bc:	10 92 15 01 	sts	0x0115, r1	; 0x800115 <nextState>
 2c0:	3f c0       	rjmp	.+126    	; 0x340 <KeyTick+0x234>
 2c2:	10 92 16 01 	sts	0x0116, r1	; 0x800116 <nextState+0x1>
 2c6:	10 92 15 01 	sts	0x0115, r1	; 0x800115 <nextState>
 2ca:	3d c0       	rjmp	.+122    	; 0x346 <KeyTick+0x23a>
 2cc:	10 92 16 01 	sts	0x0116, r1	; 0x800116 <nextState+0x1>
 2d0:	10 92 15 01 	sts	0x0115, r1	; 0x800115 <nextState>
 2d4:	3a c0       	rjmp	.+116    	; 0x34a <KeyTick+0x23e>
 2d6:	10 92 16 01 	sts	0x0116, r1	; 0x800116 <nextState+0x1>
 2da:	10 92 15 01 	sts	0x0115, r1	; 0x800115 <nextState>
 2de:	81 31       	cpi	r24, 0x11	; 17
 2e0:	91 05       	cpc	r25, r1
 2e2:	b0 f5       	brcc	.+108    	; 0x350 <KeyTick+0x244>
 2e4:	fc 01       	movw	r30, r24
 2e6:	e9 5a       	subi	r30, 0xA9	; 169
 2e8:	ff 4f       	sbci	r31, 0xFF	; 255
 2ea:	4e c1       	rjmp	.+668    	; 0x588 <__tablejump2__>
 2ec:	85 b1       	in	r24, 0x05	; 5
 2ee:	85 b9       	out	0x05, r24	; 5
 2f0:	31 c0       	rjmp	.+98     	; 0x354 <KeyTick+0x248>
 2f2:	81 e0       	ldi	r24, 0x01	; 1
 2f4:	85 b9       	out	0x05, r24	; 5
 2f6:	2e c0       	rjmp	.+92     	; 0x354 <KeyTick+0x248>
 2f8:	82 e0       	ldi	r24, 0x02	; 2
 2fa:	85 b9       	out	0x05, r24	; 5
 2fc:	2b c0       	rjmp	.+86     	; 0x354 <KeyTick+0x248>
 2fe:	83 e0       	ldi	r24, 0x03	; 3
 300:	85 b9       	out	0x05, r24	; 5
 302:	28 c0       	rjmp	.+80     	; 0x354 <KeyTick+0x248>
 304:	84 e0       	ldi	r24, 0x04	; 4
 306:	85 b9       	out	0x05, r24	; 5
 308:	25 c0       	rjmp	.+74     	; 0x354 <KeyTick+0x248>
 30a:	85 e0       	ldi	r24, 0x05	; 5
 30c:	85 b9       	out	0x05, r24	; 5
 30e:	22 c0       	rjmp	.+68     	; 0x354 <KeyTick+0x248>
 310:	86 e0       	ldi	r24, 0x06	; 6
 312:	85 b9       	out	0x05, r24	; 5
 314:	1f c0       	rjmp	.+62     	; 0x354 <KeyTick+0x248>
 316:	87 e0       	ldi	r24, 0x07	; 7
 318:	85 b9       	out	0x05, r24	; 5
 31a:	1c c0       	rjmp	.+56     	; 0x354 <KeyTick+0x248>
 31c:	88 e0       	ldi	r24, 0x08	; 8
 31e:	85 b9       	out	0x05, r24	; 5
 320:	19 c0       	rjmp	.+50     	; 0x354 <KeyTick+0x248>
 322:	89 e0       	ldi	r24, 0x09	; 9
 324:	85 b9       	out	0x05, r24	; 5
 326:	16 c0       	rjmp	.+44     	; 0x354 <KeyTick+0x248>
 328:	8a e0       	ldi	r24, 0x0A	; 10
 32a:	85 b9       	out	0x05, r24	; 5
 32c:	13 c0       	rjmp	.+38     	; 0x354 <KeyTick+0x248>
 32e:	8b e0       	ldi	r24, 0x0B	; 11
 330:	85 b9       	out	0x05, r24	; 5
 332:	10 c0       	rjmp	.+32     	; 0x354 <KeyTick+0x248>
 334:	8c e0       	ldi	r24, 0x0C	; 12
 336:	85 b9       	out	0x05, r24	; 5
 338:	0d c0       	rjmp	.+26     	; 0x354 <KeyTick+0x248>
 33a:	8d e0       	ldi	r24, 0x0D	; 13
 33c:	85 b9       	out	0x05, r24	; 5
 33e:	0a c0       	rjmp	.+20     	; 0x354 <KeyTick+0x248>
 340:	8e e0       	ldi	r24, 0x0E	; 14
 342:	85 b9       	out	0x05, r24	; 5
 344:	07 c0       	rjmp	.+14     	; 0x354 <KeyTick+0x248>
 346:	15 b8       	out	0x05, r1	; 5
 348:	05 c0       	rjmp	.+10     	; 0x354 <KeyTick+0x248>
 34a:	8f e0       	ldi	r24, 0x0F	; 15
 34c:	85 b9       	out	0x05, r24	; 5
 34e:	02 c0       	rjmp	.+4      	; 0x354 <KeyTick+0x248>
 350:	8b e1       	ldi	r24, 0x1B	; 27
 352:	85 b9       	out	0x05, r24	; 5
 354:	80 91 15 01 	lds	r24, 0x0115	; 0x800115 <nextState>
 358:	90 91 16 01 	lds	r25, 0x0116	; 0x800116 <nextState+0x1>
 35c:	08 95       	ret

0000035e <TimerSet>:
 35e:	60 93 00 01 	sts	0x0100, r22	; 0x800100 <__data_start>
 362:	70 93 01 01 	sts	0x0101, r23	; 0x800101 <__data_start+0x1>
 366:	80 93 02 01 	sts	0x0102, r24	; 0x800102 <__data_start+0x2>
 36a:	90 93 03 01 	sts	0x0103, r25	; 0x800103 <__data_start+0x3>
 36e:	60 93 0f 01 	sts	0x010F, r22	; 0x80010f <_avr_timer_cntcurr>
 372:	70 93 10 01 	sts	0x0110, r23	; 0x800110 <_avr_timer_cntcurr+0x1>
 376:	80 93 11 01 	sts	0x0111, r24	; 0x800111 <_avr_timer_cntcurr+0x2>
 37a:	90 93 12 01 	sts	0x0112, r25	; 0x800112 <_avr_timer_cntcurr+0x3>
 37e:	08 95       	ret

00000380 <TimerOn>:
 380:	8b e0       	ldi	r24, 0x0B	; 11
 382:	80 93 81 00 	sts	0x0081, r24	; 0x800081 <__TEXT_REGION_LENGTH__+0x7e0081>
 386:	8d e7       	ldi	r24, 0x7D	; 125
 388:	90 e0       	ldi	r25, 0x00	; 0
 38a:	90 93 89 00 	sts	0x0089, r25	; 0x800089 <__TEXT_REGION_LENGTH__+0x7e0089>
 38e:	80 93 88 00 	sts	0x0088, r24	; 0x800088 <__TEXT_REGION_LENGTH__+0x7e0088>
 392:	82 e0       	ldi	r24, 0x02	; 2
 394:	80 93 6f 00 	sts	0x006F, r24	; 0x80006f <__TEXT_REGION_LENGTH__+0x7e006f>
 398:	10 92 85 00 	sts	0x0085, r1	; 0x800085 <__TEXT_REGION_LENGTH__+0x7e0085>
 39c:	10 92 84 00 	sts	0x0084, r1	; 0x800084 <__TEXT_REGION_LENGTH__+0x7e0084>
 3a0:	80 91 00 01 	lds	r24, 0x0100	; 0x800100 <__data_start>
 3a4:	90 91 01 01 	lds	r25, 0x0101	; 0x800101 <__data_start+0x1>
 3a8:	a0 91 02 01 	lds	r26, 0x0102	; 0x800102 <__data_start+0x2>
 3ac:	b0 91 03 01 	lds	r27, 0x0103	; 0x800103 <__data_start+0x3>
 3b0:	80 93 0f 01 	sts	0x010F, r24	; 0x80010f <_avr_timer_cntcurr>
 3b4:	90 93 10 01 	sts	0x0110, r25	; 0x800110 <_avr_timer_cntcurr+0x1>
 3b8:	a0 93 11 01 	sts	0x0111, r26	; 0x800111 <_avr_timer_cntcurr+0x2>
 3bc:	b0 93 12 01 	sts	0x0112, r27	; 0x800112 <_avr_timer_cntcurr+0x3>
 3c0:	8f b7       	in	r24, 0x3f	; 63
 3c2:	80 68       	ori	r24, 0x80	; 128
 3c4:	8f bf       	out	0x3f, r24	; 63
 3c6:	08 95       	ret

000003c8 <__vector_13>:
 3c8:	1f 92       	push	r1
 3ca:	0f 92       	push	r0
 3cc:	0f b6       	in	r0, 0x3f	; 63
 3ce:	0f 92       	push	r0
 3d0:	11 24       	eor	r1, r1
 3d2:	8f 93       	push	r24
 3d4:	9f 93       	push	r25
 3d6:	af 93       	push	r26
 3d8:	bf 93       	push	r27
 3da:	80 91 0f 01 	lds	r24, 0x010F	; 0x80010f <_avr_timer_cntcurr>
 3de:	90 91 10 01 	lds	r25, 0x0110	; 0x800110 <_avr_timer_cntcurr+0x1>
 3e2:	a0 91 11 01 	lds	r26, 0x0111	; 0x800111 <_avr_timer_cntcurr+0x2>
 3e6:	b0 91 12 01 	lds	r27, 0x0112	; 0x800112 <_avr_timer_cntcurr+0x3>
 3ea:	01 97       	sbiw	r24, 0x01	; 1
 3ec:	a1 09       	sbc	r26, r1
 3ee:	b1 09       	sbc	r27, r1
 3f0:	80 93 0f 01 	sts	0x010F, r24	; 0x80010f <_avr_timer_cntcurr>
 3f4:	90 93 10 01 	sts	0x0110, r25	; 0x800110 <_avr_timer_cntcurr+0x1>
 3f8:	a0 93 11 01 	sts	0x0111, r26	; 0x800111 <_avr_timer_cntcurr+0x2>
 3fc:	b0 93 12 01 	sts	0x0112, r27	; 0x800112 <_avr_timer_cntcurr+0x3>
 400:	89 2b       	or	r24, r25
 402:	8a 2b       	or	r24, r26
 404:	8b 2b       	or	r24, r27
 406:	99 f4       	brne	.+38     	; 0x42e <__LOCK_REGION_LENGTH__+0x2e>
 408:	81 e0       	ldi	r24, 0x01	; 1
 40a:	80 93 13 01 	sts	0x0113, r24	; 0x800113 <TimerFlag>
 40e:	80 91 00 01 	lds	r24, 0x0100	; 0x800100 <__data_start>
 412:	90 91 01 01 	lds	r25, 0x0101	; 0x800101 <__data_start+0x1>
 416:	a0 91 02 01 	lds	r26, 0x0102	; 0x800102 <__data_start+0x2>
 41a:	b0 91 03 01 	lds	r27, 0x0103	; 0x800103 <__data_start+0x3>
 41e:	80 93 0f 01 	sts	0x010F, r24	; 0x80010f <_avr_timer_cntcurr>
 422:	90 93 10 01 	sts	0x0110, r25	; 0x800110 <_avr_timer_cntcurr+0x1>
 426:	a0 93 11 01 	sts	0x0111, r26	; 0x800111 <_avr_timer_cntcurr+0x2>
 42a:	b0 93 12 01 	sts	0x0112, r27	; 0x800112 <_avr_timer_cntcurr+0x3>
 42e:	bf 91       	pop	r27
 430:	af 91       	pop	r26
 432:	9f 91       	pop	r25
 434:	8f 91       	pop	r24
 436:	0f 90       	pop	r0
 438:	0f be       	out	0x3f, r0	; 63
 43a:	0f 90       	pop	r0
 43c:	1f 90       	pop	r1
 43e:	18 95       	reti

00000440 <GetKeypadKey>:
 440:	8f ee       	ldi	r24, 0xEF	; 239
 442:	88 b9       	out	0x08, r24	; 8
 444:	00 00       	nop
 446:	30 9b       	sbis	0x06, 0	; 6
 448:	29 c0       	rjmp	.+82     	; 0x49c <GetKeypadKey+0x5c>
 44a:	31 9b       	sbis	0x06, 1	; 6
 44c:	29 c0       	rjmp	.+82     	; 0x4a0 <GetKeypadKey+0x60>
 44e:	32 9b       	sbis	0x06, 2	; 6
 450:	29 c0       	rjmp	.+82     	; 0x4a4 <GetKeypadKey+0x64>
 452:	33 9b       	sbis	0x06, 3	; 6
 454:	29 c0       	rjmp	.+82     	; 0x4a8 <GetKeypadKey+0x68>
 456:	8f ed       	ldi	r24, 0xDF	; 223
 458:	88 b9       	out	0x08, r24	; 8
 45a:	00 00       	nop
 45c:	30 9b       	sbis	0x06, 0	; 6
 45e:	26 c0       	rjmp	.+76     	; 0x4ac <GetKeypadKey+0x6c>
 460:	31 9b       	sbis	0x06, 1	; 6
 462:	26 c0       	rjmp	.+76     	; 0x4b0 <GetKeypadKey+0x70>
 464:	32 9b       	sbis	0x06, 2	; 6
 466:	26 c0       	rjmp	.+76     	; 0x4b4 <GetKeypadKey+0x74>
 468:	33 9b       	sbis	0x06, 3	; 6
 46a:	26 c0       	rjmp	.+76     	; 0x4b8 <GetKeypadKey+0x78>
 46c:	8f eb       	ldi	r24, 0xBF	; 191
 46e:	88 b9       	out	0x08, r24	; 8
 470:	00 00       	nop
 472:	30 9b       	sbis	0x06, 0	; 6
 474:	23 c0       	rjmp	.+70     	; 0x4bc <GetKeypadKey+0x7c>
 476:	31 9b       	sbis	0x06, 1	; 6
 478:	23 c0       	rjmp	.+70     	; 0x4c0 <GetKeypadKey+0x80>
 47a:	32 9b       	sbis	0x06, 2	; 6
 47c:	23 c0       	rjmp	.+70     	; 0x4c4 <GetKeypadKey+0x84>
 47e:	33 9b       	sbis	0x06, 3	; 6
 480:	23 c0       	rjmp	.+70     	; 0x4c8 <GetKeypadKey+0x88>
 482:	8f e7       	ldi	r24, 0x7F	; 127
 484:	88 b9       	out	0x08, r24	; 8
 486:	00 00       	nop
 488:	30 9b       	sbis	0x06, 0	; 6
 48a:	20 c0       	rjmp	.+64     	; 0x4cc <GetKeypadKey+0x8c>
 48c:	31 9b       	sbis	0x06, 1	; 6
 48e:	20 c0       	rjmp	.+64     	; 0x4d0 <GetKeypadKey+0x90>
 490:	32 9b       	sbis	0x06, 2	; 6
 492:	20 c0       	rjmp	.+64     	; 0x4d4 <GetKeypadKey+0x94>
 494:	33 9b       	sbis	0x06, 3	; 6
 496:	20 c0       	rjmp	.+64     	; 0x4d8 <GetKeypadKey+0x98>
 498:	80 e0       	ldi	r24, 0x00	; 0
 49a:	08 95       	ret
 49c:	81 e3       	ldi	r24, 0x31	; 49
 49e:	08 95       	ret
 4a0:	84 e3       	ldi	r24, 0x34	; 52
 4a2:	08 95       	ret
 4a4:	87 e3       	ldi	r24, 0x37	; 55
 4a6:	08 95       	ret
 4a8:	8a e2       	ldi	r24, 0x2A	; 42
 4aa:	08 95       	ret
 4ac:	82 e3       	ldi	r24, 0x32	; 50
 4ae:	08 95       	ret
 4b0:	85 e3       	ldi	r24, 0x35	; 53
 4b2:	08 95       	ret
 4b4:	88 e3       	ldi	r24, 0x38	; 56
 4b6:	08 95       	ret
 4b8:	80 e3       	ldi	r24, 0x30	; 48
 4ba:	08 95       	ret
 4bc:	83 e3       	ldi	r24, 0x33	; 51
 4be:	08 95       	ret
 4c0:	86 e3       	ldi	r24, 0x36	; 54
 4c2:	08 95       	ret
 4c4:	89 e3       	ldi	r24, 0x39	; 57
 4c6:	08 95       	ret
 4c8:	83 e2       	ldi	r24, 0x23	; 35
 4ca:	08 95       	ret
 4cc:	81 e4       	ldi	r24, 0x41	; 65
 4ce:	08 95       	ret
 4d0:	82 e4       	ldi	r24, 0x42	; 66
 4d2:	08 95       	ret
 4d4:	83 e4       	ldi	r24, 0x43	; 67
 4d6:	08 95       	ret
 4d8:	84 e4       	ldi	r24, 0x44	; 68
 4da:	08 95       	ret

000004dc <main>:
int KT_state;
int nextState;

int main(void)
{
	DDRB = 0xFF; PORTB = 0x00;//OUTPUT for the 5 LEDs (B0-B4)
 4dc:	8f ef       	ldi	r24, 0xFF	; 255
 4de:	84 b9       	out	0x04, r24	; 4
 4e0:	15 b8       	out	0x05, r1	; 5
	DDRC = 0xF0; PORTC = 0x0F;//KEYPAD PC7:C4 outputs 0s, PC3:C0 inputs 1s
 4e2:	80 ef       	ldi	r24, 0xF0	; 240
 4e4:	87 b9       	out	0x07, r24	; 7
 4e6:	8f e0       	ldi	r24, 0x0F	; 15
 4e8:	88 b9       	out	0x08, r24	; 8
	
	static task task1;
	task *tasks[] = { &task1};

	task1.state = zero;
	task1.period = 1;
 4ea:	e4 e0       	ldi	r30, 0x04	; 4
 4ec:	f1 e0       	ldi	r31, 0x01	; 1
 4ee:	81 e0       	ldi	r24, 0x01	; 1
 4f0:	90 e0       	ldi	r25, 0x00	; 0
 4f2:	a0 e0       	ldi	r26, 0x00	; 0
 4f4:	b0 e0       	ldi	r27, 0x00	; 0
 4f6:	81 83       	std	Z+1, r24	; 0x01
 4f8:	92 83       	std	Z+2, r25	; 0x02
 4fa:	a3 83       	std	Z+3, r26	; 0x03
 4fc:	b4 83       	std	Z+4, r27	; 0x04
	task1.elapsedTime = task1.period;
 4fe:	85 83       	std	Z+5, r24	; 0x05
 500:	96 83       	std	Z+6, r25	; 0x06
 502:	a7 83       	std	Z+7, r26	; 0x07
 504:	b0 87       	std	Z+8, r27	; 0x08
	task1.TickFct = &KeyTick;
 506:	86 e8       	ldi	r24, 0x86	; 134
 508:	90 e0       	ldi	r25, 0x00	; 0
 50a:	92 87       	std	Z+10, r25	; 0x0a
 50c:	81 87       	std	Z+9, r24	; 0x09

	TimerSet(1000);
 50e:	68 ee       	ldi	r22, 0xE8	; 232
 510:	73 e0       	ldi	r23, 0x03	; 3
 512:	80 e0       	ldi	r24, 0x00	; 0
 514:	90 e0       	ldi	r25, 0x00	; 0
 516:	23 df       	rcall	.-442    	; 0x35e <TimerSet>
	TimerOn();
 518:	33 df       	rcall	.-410    	; 0x380 <TimerOn>
 51a:	c4 e0       	ldi	r28, 0x04	; 4

	while(1) {
		x = GetKeypadKey();
		task1.state = x;
 51c:	d1 e0       	ldi	r29, 0x01	; 1

	TimerSet(1000);
	TimerOn();

	while(1) {
		x = GetKeypadKey();
 51e:	90 df       	rcall	.-224    	; 0x440 <GetKeypadKey>
 520:	88 83       	st	Y, r24
		task1.state = x;
 522:	12 e0       	ldi	r17, 0x02	; 2
 524:	4d 81       	ldd	r20, Y+5	; 0x05
		for(i = 0; i<tasksSize; i++){
			if(task1.elapsedTime >= task1.period){
 526:	5e 81       	ldd	r21, Y+6	; 0x06
 528:	6f 81       	ldd	r22, Y+7	; 0x07
 52a:	78 85       	ldd	r23, Y+8	; 0x08
 52c:	89 81       	ldd	r24, Y+1	; 0x01
 52e:	9a 81       	ldd	r25, Y+2	; 0x02
 530:	ab 81       	ldd	r26, Y+3	; 0x03
 532:	bc 81       	ldd	r27, Y+4	; 0x04
 534:	48 17       	cp	r20, r24
 536:	59 07       	cpc	r21, r25
 538:	6a 07       	cpc	r22, r26
 53a:	7b 07       	cpc	r23, r27
 53c:	60 f0       	brcs	.+24     	; 0x556 <main+0x7a>
 53e:	88 81       	ld	r24, Y
				task1.state = task1.TickFct(task1.state);
 540:	e9 85       	ldd	r30, Y+9	; 0x09
 542:	fa 85       	ldd	r31, Y+10	; 0x0a
 544:	08 2e       	mov	r0, r24
 546:	00 0c       	add	r0, r0
 548:	99 0b       	sbc	r25, r25
 54a:	09 95       	icall
 54c:	88 83       	st	Y, r24
 54e:	1d 82       	std	Y+5, r1	; 0x05
				task1.elapsedTime = 0;
 550:	1e 82       	std	Y+6, r1	; 0x06
 552:	1f 82       	std	Y+7, r1	; 0x07
 554:	18 86       	std	Y+8, r1	; 0x08
 556:	4d 81       	ldd	r20, Y+5	; 0x05
			}
			task1.elapsedTime += task1.period;
 558:	5e 81       	ldd	r21, Y+6	; 0x06
 55a:	6f 81       	ldd	r22, Y+7	; 0x07
 55c:	78 85       	ldd	r23, Y+8	; 0x08
 55e:	89 81       	ldd	r24, Y+1	; 0x01
 560:	9a 81       	ldd	r25, Y+2	; 0x02
 562:	ab 81       	ldd	r26, Y+3	; 0x03
 564:	bc 81       	ldd	r27, Y+4	; 0x04
 566:	84 0f       	add	r24, r20
 568:	95 1f       	adc	r25, r21
 56a:	a6 1f       	adc	r26, r22
 56c:	b7 1f       	adc	r27, r23
 56e:	8d 83       	std	Y+5, r24	; 0x05
 570:	9e 83       	std	Y+6, r25	; 0x06
 572:	af 83       	std	Y+7, r26	; 0x07
 574:	b8 87       	std	Y+8, r27	; 0x08
 576:	11 50       	subi	r17, 0x01	; 1
 578:	a9 f6       	brne	.-86     	; 0x524 <main+0x48>
	TimerOn();

	while(1) {
		x = GetKeypadKey();
		task1.state = x;
		for(i = 0; i<tasksSize; i++){
 57a:	80 91 13 01 	lds	r24, 0x0113	; 0x800113 <TimerFlag>
				task1.elapsedTime = 0;
			}
			task1.elapsedTime += task1.period;
		}

		while(!TimerFlag){}
 57e:	88 23       	and	r24, r24
 580:	e1 f3       	breq	.-8      	; 0x57a <main+0x9e>
 582:	10 92 13 01 	sts	0x0113, r1	; 0x800113 <TimerFlag>
		TimerFlag = 0;
 586:	cb cf       	rjmp	.-106    	; 0x51e <main+0x42>

00000588 <__tablejump2__>:
	}
 588:	ee 0f       	add	r30, r30
 58a:	ff 1f       	adc	r31, r31
 58c:	00 24       	eor	r0, r0
 58e:	00 1c       	adc	r0, r0
 590:	0b be       	out	0x3b, r0	; 59
 592:	07 90       	elpm	r0, Z+
 594:	f6 91       	elpm	r31, Z
 596:	e0 2d       	mov	r30, r0
 598:	09 94       	ijmp

0000059a <_exit>:
 59a:	f8 94       	cli

0000059c <__stop_program>:
 59c:	ff cf       	rjmp	.-2      	; 0x59c <__stop_program>
